target datalayout = "e-m:e-p270:32:32-p271:32:32-p272:64:64-i64:64-i128:128-f80:128-n8:16:32:64-S128"
target triple = "x86_64-pc-linux-gnu"

%struct.anon = type { [4 x ptr], [4 x ptr], i32, i32, i32, i32, i32, i32, i32, i32, i32, i32, [3 x i32], [3 x i32], [20 x i32], [20 x i32], [2 x i32], [2 x i32], [6 x [6 x double]], [6 x double], [6 x double], [6 x double], [6 x double], double, double, double, [2400 x double], [2400 x double], ptr, ptr, ptr, i32 }

; Function Attrs: nounwind uwtable
define internal void @CbInit(ptr noundef %0, i32 noundef %1, ptr noundef %2) #0 {
  %4 = alloca ptr, align 8
  %5 = alloca i32, align 4
  %6 = alloca ptr, align 8
  %7 = alloca i32, align 4
  %8 = alloca i32, align 4
  %9 = alloca i32, align 4
  %10 = alloca i32, align 4
  %11 = alloca i32, align 4
  %12 = alloca i32, align 4
  %13 = alloca i32, align 4
  %14 = alloca i32, align 4
  %15 = alloca ptr, align 8
  %16 = alloca [6 x double], align 16
  store ptr %0, ptr %4, align 8, !tbaa !13
  store i32 %1, ptr %5, align 4, !tbaa !4
  store ptr %2, ptr %6, align 8, !tbaa !15
  call void @llvm.lifetime.start.p0(i64 4, ptr %7) #6
  call void @llvm.lifetime.start.p0(i64 4, ptr %8) #6
  call void @llvm.lifetime.start.p0(i64 4, ptr %9) #6
  call void @llvm.lifetime.start.p0(i64 4, ptr %10) #6
  call void @llvm.lifetime.start.p0(i64 4, ptr %11) #6
  call void @llvm.lifetime.start.p0(i64 4, ptr %12) #6
  call void @llvm.lifetime.start.p0(i64 4, ptr %13) #6
  call void @llvm.lifetime.start.p0(i64 4, ptr %14) #6
  call void @llvm.lifetime.start.p0(i64 8, ptr %15) #6
  call void @llvm.lifetime.start.p0(i64 48, ptr %16) #6
  %17 = load ptr, ptr %4, align 8, !tbaa !13
  %18 = call ptr @N_VGetArrayPointer(ptr noundef %17)
  store ptr %18, ptr %15, align 8, !tbaa !37
  %19 = load ptr, ptr %6, align 8, !tbaa !15
  %20 = getelementptr inbounds nuw %struct.anon, ptr %19, i32 0, i32 2
  %21 = load i32, ptr %20, align 8, !tbaa !39
  store i32 %21, ptr %13, align 4, !tbaa !4
  %22 = load ptr, ptr %6, align 8, !tbaa !15
  %23 = getelementptr inbounds nuw %struct.anon, ptr %22, i32 0, i32 3
  %24 = load i32, ptr %23, align 4, !tbaa !40
  store i32 %24, ptr %14, align 4, !tbaa !4
  store i32 1, ptr %7, align 4, !tbaa !4
  br label %25

25:                                               ; preds = %34, %3
  %26 = load i32, ptr %7, align 4, !tbaa !4
  %27 = load i32, ptr %13, align 4, !tbaa !4
  %28 = icmp sle i32 %26, %27
  br i1 %28, label %29, label %37

29:                                               ; preds = %25
  %30 = load i32, ptr %7, align 4, !tbaa !4
  %31 = sub nsw i32 %30, 1
  %32 = sext i32 %31 to i64
  %33 = getelementptr inbounds [6 x double], ptr %16, i64 0, i64 %32
  store double 0.000000e+00, ptr %33, align 8, !tbaa !11
  br label %34

34:                                               ; preds = %29
  %35 = load i32, ptr %7, align 4, !tbaa !4
  %36 = add nsw i32 %35, 1
  store i32 %36, ptr %7, align 4, !tbaa !4
  br label %25

37:                                               ; preds = %25
  %38 = getelementptr inbounds [6 x double], ptr %16, i64 0, i64 5
  store double 1.000000e+00, ptr %38, align 8, !tbaa !11
  store i32 0, ptr %12, align 4, !tbaa !4
  br label %39

39:                                               ; preds = %81, %37
  %40 = load i32, ptr %12, align 4, !tbaa !4
  %41 = icmp slt i32 %40, 20
  br i1 %41, label %42, label %84

42:                                               ; preds = %39
  %43 = load i32, ptr %14, align 4, !tbaa !4
  %44 = load i32, ptr %12, align 4, !tbaa !4
  %45 = mul nsw i32 %43, %44
  store i32 %45, ptr %10, align 4, !tbaa !4
  store i32 0, ptr %11, align 4, !tbaa !4
  br label %46

46:                                               ; preds = %77, %42
  %47 = load i32, ptr %11, align 4, !tbaa !4
  %48 = icmp slt i32 %47, 20
  br i1 %48, label %49, label %80

49:                                               ; preds = %46
  %50 = load i32, ptr %10, align 4, !tbaa !4
  %51 = load i32, ptr %13, align 4, !tbaa !4
  %52 = load i32, ptr %11, align 4, !tbaa !4
  %53 = mul nsw i32 %51, %52
  %54 = add nsw i32 %50, %53
  store i32 %54, ptr %9, align 4, !tbaa !4
  store i32 1, ptr %7, align 4, !tbaa !4
  br label %55

55:                                               ; preds = %73, %49
  %56 = load i32, ptr %7, align 4, !tbaa !4
  %57 = load i32, ptr %13, align 4, !tbaa !4
  %58 = icmp sle i32 %56, %57
  br i1 %58, label %59, label %76

59:                                               ; preds = %55
  %60 = load i32, ptr %9, align 4, !tbaa !4
  %61 = load i32, ptr %7, align 4, !tbaa !4
  %62 = add nsw i32 %60, %61
  %63 = sub nsw i32 %62, 1
  store i32 %63, ptr %8, align 4, !tbaa !4
  %64 = load i32, ptr %7, align 4, !tbaa !4
  %65 = sub nsw i32 %64, 1
  %66 = sext i32 %65 to i64
  %67 = getelementptr inbounds [6 x double], ptr %16, i64 0, i64 %66
  %68 = load double, ptr %67, align 8, !tbaa !11
  %69 = load ptr, ptr %15, align 8, !tbaa !37
  %70 = load i32, ptr %8, align 4, !tbaa !4
  %71 = sext i32 %70 to i64
  %72 = getelementptr inbounds double, ptr %69, i64 %71
  store double %68, ptr %72, align 8, !tbaa !11
  br label %73

73:                                               ; preds = %59
  %74 = load i32, ptr %7, align 4, !tbaa !4
  %75 = add nsw i32 %74, 1
  store i32 %75, ptr %7, align 4, !tbaa !4
  br label %55

76:                                               ; preds = %55
  br label %77

77:                                               ; preds = %76
  %78 = load i32, ptr %11, align 4, !tbaa !4
  %79 = add nsw i32 %78, 1
  store i32 %79, ptr %11, align 4, !tbaa !4
  br label %46

80:                                               ; preds = %46
  br label %81

81:                                               ; preds = %80
  %82 = load i32, ptr %12, align 4, !tbaa !4
  %83 = add nsw i32 %82, 1
  store i32 %83, ptr %12, align 4, !tbaa !4
  br label %39

84:                                               ; preds = %39
  call void @llvm.lifetime.end.p0(i64 48, ptr %16) #6
  call void @llvm.lifetime.end.p0(i64 8, ptr %15) #6
  call void @llvm.lifetime.end.p0(i64 4, ptr %14) #6
  call void @llvm.lifetime.end.p0(i64 4, ptr %13) #6
  call void @llvm.lifetime.end.p0(i64 4, ptr %12) #6
  call void @llvm.lifetime.end.p0(i64 4, ptr %11) #6
  call void @llvm.lifetime.end.p0(i64 4, ptr %10) #6
  call void @llvm.lifetime.end.p0(i64 4, ptr %9) #6
  call void @llvm.lifetime.end.p0(i64 4, ptr %8) #6
  call void @llvm.lifetime.end.p0(i64 4, ptr %7) #6
  ret void
}