; Function Attrs: nounwind uwtable
define internal fastcc void @CbInit(ptr noundef %0, ptr noundef readonly captures(none) %1) unnamed_addr #0 {
  %3 = alloca [6 x double], align 16
  call void @llvm.lifetime.start.p0(i64 48, ptr nonnull %3)
  %4 = tail call ptr @N_VGetArrayPointer(ptr noundef %0) #10
  %5 = getelementptr inbounds nuw i8, ptr %1, i64 64
  %6 = load i32, ptr %5, align 8, !tbaa !21
  %.not27 = icmp slt i32 %6, 1
  br i1 %.not27, label %.split40.us, label %.split.preheader

.split.preheader:                                 ; preds = %2
  %7 = getelementptr inbounds nuw i8, ptr %1, i64 68
  %8 = load i32, ptr %7, align 4, !tbaa !23
  %9 = zext nneg i32 %6 to i64
  %10 = shl nuw nsw i64 %9, 3
  call void @llvm.memset.p0.i64(ptr nonnull align 16 %3, i8 0, i64 %10, i1 false), !tbaa !22
  %.40..40..sroa_idx = getelementptr inbounds nuw i8, ptr %3, i64 40
  store double 1.000000e+00, ptr %.40..40..sroa_idx, align 8, !tbaa !22
  %11 = sext i32 %8 to i64
  %12 = shl nsw i64 %11, 3
  %13 = zext nneg i32 %6 to i64
  %14 = shl nuw nsw i64 %13, 3
  %15 = zext nneg i32 %6 to i64
  %16 = shl nuw nsw i64 %15, 3
  br label %.split

.split:                                           ; preds = %.split.preheader, %.split36
  %indvar = phi i64 [ 0, %.split.preheader ], [ %indvar.next, %.split36 ]
  %17 = mul i64 %12, %indvar
  %18 = getelementptr i8, ptr %4, i64 %17
  br label %.lr.ph32

.lr.ph32:                                         ; preds = %.split, %.lr.ph32
  %indvar43 = phi i64 [ 0, %.split ], [ %indvar.next44, %.lr.ph32 ]
  %19 = mul i64 %14, %indvar43
  %scevgep = getelementptr i8, ptr %18, i64 %19
  call void @llvm.memcpy.p0.p0.i64(ptr align 8 %scevgep, ptr nonnull align 16 %3, i64 %16, i1 false), !tbaa !22
  %indvar.next44 = add nuw nsw i64 %indvar43, 1
  %exitcond.not = icmp eq i64 %indvar.next44, 20
  br i1 %exitcond.not, label %.split36, label %.lr.ph32

.split36:                                         ; preds = %.lr.ph32
  %indvar.next = add nuw nsw i64 %indvar, 1
  %exitcond48.not = icmp eq i64 %indvar.next, 20
  br i1 %exitcond48.not, label %.split40.us, label %.split

.split40.us:                                      ; preds = %.split36, %2
  call void @llvm.lifetime.end.p0(i64 48, ptr nonnull %3)
  ret void
}